; Function Attrs: nounwind uwtable
define noalias noundef ptr @Gia_ManInseTest(ptr noundef captures(none) %0, ptr noundef readnone %1, i32 noundef %2, i32 noundef %3, i32 noundef %4, i32 noundef %5, i32 noundef %6) local_unnamed_addr #1 {
  %calloc = tail call dereferenceable_or_null(16) ptr @calloc(i64 1, i64 16)
  %8 = getelementptr inbounds nuw i8, ptr %calloc, i64 4
  %9 = getelementptr i8, ptr %0, i64 16
  %.val = load i32, ptr %9, align 8
  %.not.i.i = icmp sgt i32 %.val, 0
  br i1 %.not.i.i, label %.lr.ph.i, label %Vec_IntFill.exit

.lr.ph.i:                                         ; preds = %7
  %10 = getelementptr inbounds nuw i8, ptr %calloc, i64 8
  %11 = zext nneg i32 %.val to i64
  %12 = shl nuw nsw i64 %11, 2
  %13 = tail call noalias ptr @malloc(i64 noundef %12) #17
  store ptr %13, ptr %10, align 8
  store i32 %.val, ptr %calloc, align 8
  br label %14

14:                                               ; preds = %14, %.lr.ph.i
  %indvars.iv.i = phi i64 [ 0, %.lr.ph.i ], [ %indvars.iv.next.i, %14 ]
  %15 = getelementptr inbounds nuw i32, ptr %13, i64 %indvars.iv.i
  store i32 0, ptr %15, align 4
  %indvars.iv.next.i = add nuw nsw i64 %indvars.iv.i, 1
  %exitcond.not.i = icmp eq i64 %indvars.iv.next.i, %11
  br i1 %exitcond.not.i, label %Vec_IntFill.exit, label %14, !llvm.loop !28

Vec_IntFill.exit:                                 ; preds = %14, %7
  %16 = phi ptr [ null, %7 ], [ %13, %14 ]
  store i32 %.val, ptr %8, align 4
  %17 = tail call ptr @Gia_ManInsePerform(ptr noundef %0, ptr noundef nonnull %calloc, i32 noundef %2, i32 noundef %3, i32 noundef %6)
  %.not = icmp eq ptr %calloc, %1
  br i1 %.not, label %20, label %18

18:                                               ; preds = %Vec_IntFill.exit
  %.not.i = icmp eq ptr %16, null
  br i1 %.not.i, label %Vec_IntFree.exit, label %19

19:                                               ; preds = %18
  tail call void @free(ptr noundef nonnull %16) #14
  br label %Vec_IntFree.exit

Vec_IntFree.exit:                                 ; preds = %18, %19
  tail call void @free(ptr noundef nonnull %calloc) #14
  br label %20

20:                                               ; preds = %Vec_IntFree.exit, %Vec_IntFill.exit
  ret ptr %17
}